; Function Attrs: mustprogress nounwind uwtable
define noundef zeroext i1 @_ZN5boost10filesystem18portable_file_nameERKNSt7__cxx1112basic_stringIcSt11char_traitsIcESaIcEEE(ptr noundef nonnull align 8 dereferenceable(32) %0) local_unnamed_addr #0 {
  %2 = tail call noundef zeroext i1 @_ZN5boost10filesystem13portable_nameERKNSt7__cxx1112basic_stringIcSt11char_traitsIcESaIcEEE(ptr noundef nonnull align 8 dereferenceable(32) %0)
  br i1 %2, label %3, label %19

3:                                                ; preds = %1
  %4 = tail call noundef i32 @_ZNKSt7__cxx1112basic_stringIcSt11char_traitsIcESaIcEE7compareEPKc(ptr noundef nonnull align 8 dereferenceable(32) %0, ptr noundef nonnull @.str.1) #2
  %.not = icmp eq i32 %4, 0
  br i1 %.not, label %19, label %5

5:                                                ; preds = %3
  %6 = tail call noundef i32 @_ZNKSt7__cxx1112basic_stringIcSt11char_traitsIcESaIcEE7compareEPKc(ptr noundef nonnull align 8 dereferenceable(32) %0, ptr noundef nonnull @.str) #2
  %.not7 = icmp eq i32 %6, 0
  br i1 %.not7, label %19, label %7

7:                                                ; preds = %5
  %8 = tail call noundef i64 @_ZNKSt7__cxx1112basic_stringIcSt11char_traitsIcESaIcEE4findEcm(ptr noundef nonnull align 8 dereferenceable(32) %0, i8 noundef signext 46, i64 noundef 0) #2
  %9 = icmp eq i64 %8, -1
  br i1 %9, label %19, label %10

10:                                               ; preds = %7
  %11 = add nuw i64 %8, 1
  %12 = tail call noundef i64 @_ZNKSt7__cxx1112basic_stringIcSt11char_traitsIcESaIcEE4findEcm(ptr noundef nonnull align 8 dereferenceable(32) %0, i8 noundef signext 46, i64 noundef %11) #2
  %13 = icmp eq i64 %12, -1
  br i1 %13, label %14, label %19

14:                                               ; preds = %10
  %15 = add i64 %8, 5
  %16 = getelementptr inbounds nuw i8, ptr %0, i64 8
  %17 = load i64, ptr %16, align 8, !tbaa !3
  %18 = icmp ugt i64 %15, %17
  br label %19

19:                                               ; preds = %7, %14, %10, %5, %3, %1
  %20 = phi i1 [ false, %5 ], [ false, %3 ], [ false, %1 ], [ true, %7 ], [ false, %10 ], [ %18, %14 ]
  ret i1 %20
}